; Function Attrs: nounwind sspstrong uwtable
define hidden void @rb_shape_set_shape(i64 noundef %0, ptr noundef %1) local_unnamed_addr #1 {
  %3 = load ptr, ptr @rb_shape_tree_ptr, align 8, !tbaa !7
  %4 = load ptr, ptr %3, align 8, !tbaa !16
  %5 = ptrtoint ptr %1 to i64
  %6 = ptrtoint ptr %4 to i64
  %7 = sub i64 %5, %6
  %8 = sdiv exact i64 %7, 40
  %9 = trunc i64 %8 to i32
  %10 = tail call zeroext i1 @rb_shape_set_shape_id(i64 noundef %0, i32 noundef %9) #15
  ret void
}